target datalayout = "e-m:e-p270:32:32-p271:32:32-p272:64:64-i64:64-f80:128-n8:16:32:64-S128"
target triple = "x86_64-pc-linux-gnu"

@.str = private unnamed_addr constant [6 x i8] c"%d %d\00", align 1
@n = common dso_local global i32 0, align 4
@m = common dso_local global i32 0, align 4
@.str.1 = private unnamed_addr constant [3 x i8] c"%d\00", align 1
@.str.2 = private unnamed_addr constant [5 x i8] c"%d%s\00", align 1
@.str.3 = private unnamed_addr constant [2 x i8] c" \00", align 1
@.str.4 = private unnamed_addr constant [2 x i8] c"\0A\00", align 1

; Function Attrs: noinline nounwind uwtable
define dso_local i32 @cmp(i8* %0, i8* %1) #0 {
  %3 = alloca i8*, align 8
  %4 = alloca i8*, align 8
  store i8* %0, i8** %3, align 8
  store i8* %1, i8** %4, align 8
  %5 = load i8*, i8** %3, align 8
  %6 = bitcast i8* %5 to i32*
  %7 = load i32, i32* %6, align 4
  %8 = load i8*, i8** %4, align 8
  %9 = bitcast i8* %8 to i32*
  %10 = load i32, i32* %9, align 4
  %11 = sub nsw i32 %7, %10
  ret i32 %11
}

; Function Attrs: noinline nounwind uwtable
define dso_local void @input(i32* %0, i32* %1) #0 {
  %3 = alloca i32*, align 8
  %4 = alloca i32*, align 8
  %5 = alloca i32, align 4
  store i32* %0, i32** %3, align 8
  store i32* %1, i32** %4, align 8
  %6 = call i32 (i8*, ...) @__isoc99_scanf(i8* getelementptr inbounds ([6 x i8], [6 x i8]* @.str, i64 0, i64 0), i32* @n, i32* @m)
  store i32 0, i32* %5, align 4
  br label %7

7:                                                ; preds = %17, %2
  %8 = load i32, i32* %5, align 4
  %9 = load i32, i32* @n, align 4
  %10 = icmp slt i32 %8, %9
  br i1 %10, label %11, label %20

11:                                               ; preds = %7
  %12 = load i32*, i32** %3, align 8
  %13 = load i32, i32* %5, align 4
  %14 = sext i32 %13 to i64
  %15 = getelementptr inbounds i32, i32* %12, i64 %14
  %16 = call i32 (i8*, ...) @__isoc99_scanf(i8* getelementptr inbounds ([3 x i8], [3 x i8]* @.str.1, i64 0, i64 0), i32* %15)
  br label %17

17:                                               ; preds = %11
  %18 = load i32, i32* %5, align 4
  %19 = add nsw i32 %18, 1
  store i32 %19, i32* %5, align 4
  br label %7

20:                                               ; preds = %7
  store i32 0, i32* %5, align 4
  br label %21

21:                                               ; preds = %31, %20
  %22 = load i32, i32* %5, align 4
  %23 = load i32, i32* @m, align 4
  %24 = icmp slt i32 %22, %23
  br i1 %24, label %25, label %34

25:                                               ; preds = %21
  %26 = load i32*, i32** %4, align 8
  %27 = load i32, i32* %5, align 4
  %28 = sext i32 %27 to i64
  %29 = getelementptr inbounds i32, i32* %26, i64 %28
  %30 = call i32 (i8*, ...) @__isoc99_scanf(i8* getelementptr inbounds ([3 x i8], [3 x i8]* @.str.1, i64 0, i64 0), i32* %29)
  br label %31

31:                                               ; preds = %25
  %32 = load i32, i32* %5, align 4
  %33 = add nsw i32 %32, 1
  store i32 %33, i32* %5, align 4
  br label %21

34:                                               ; preds = %21
  ret void
}

; Function Attrs: noinline nounwind uwtable
define dso_local void @sort(i32* %0, i32* %1) #0 {
  %3 = alloca i32*, align 8
  %4 = alloca i32*, align 8
  store i32* %0, i32** %3, align 8
  store i32* %1, i32** %4, align 8
  %5 = load i32*, i32** %3, align 8
  %6 = bitcast i32* %5 to i8*
  %7 = load i32, i32* @n, align 4
  %8 = sext i32 %7 to i64
  call void @qsort(i8* %6, i64 %8, i64 4, i32 (i8*, i8*)* @cmp)
  %9 = load i32*, i32** %4, align 8
  %10 = bitcast i32* %9 to i8*
  %11 = load i32, i32* @m, align 4
  %12 = sext i32 %11 to i64
  call void @qsort(i8* %10, i64 %12, i64 4, i32 (i8*, i8*)* @cmp)
  ret void
}

; Function Attrs: noinline nounwind uwtable
define dso_local void @merge(i32* %0, i32* %1, i32* %2) #0 {
  %4 = alloca i32*, align 8
  %5 = alloca i32*, align 8
  %6 = alloca i32*, align 8
  %7 = alloca i32, align 4
  store i32* %0, i32** %4, align 8
  store i32* %1, i32** %5, align 8
  store i32* %2, i32** %6, align 8
  store i32 0, i32* %7, align 4
  br label %8

8:                                                ; preds = %22, %3
  %9 = load i32, i32* %7, align 4
  %10 = load i32, i32* @n, align 4
  %11 = icmp slt i32 %9, %10
  br i1 %11, label %12, label %25

12:                                               ; preds = %8
  %13 = load i32*, i32** %4, align 8
  %14 = load i32, i32* %7, align 4
  %15 = sext i32 %14 to i64
  %16 = getelementptr inbounds i32, i32* %13, i64 %15
  %17 = load i32, i32* %16, align 4
  %18 = load i32*, i32** %6, align 8
  %19 = load i32, i32* %7, align 4
  %20 = sext i32 %19 to i64
  %21 = getelementptr inbounds i32, i32* %18, i64 %20
  store i32 %17, i32* %21, align 4
  br label %22

22:                                               ; preds = %12
  %23 = load i32, i32* %7, align 4
  %24 = add nsw i32 %23, 1
  store i32 %24, i32* %7, align 4
  br label %8

25:                                               ; preds = %8
  store i32 0, i32* %7, align 4
  br label %26

26:                                               ; preds = %42, %25
  %27 = load i32, i32* %7, align 4
  %28 = load i32, i32* @m, align 4
  %29 = icmp slt i32 %27, %28
  br i1 %29, label %30, label %45

30:                                               ; preds = %26
  %31 = load i32*, i32** %5, align 8
  %32 = load i32, i32* %7, align 4
  %33 = sext i32 %32 to i64
  %34 = getelementptr inbounds i32, i32* %31, i64 %33
  %35 = load i32, i32* %34, align 4
  %36 = load i32*, i32** %6, align 8
  %37 = load i32, i32* %7, align 4
  %38 = load i32, i32* @n, align 4
  %39 = add nsw i32 %37, %38
  %40 = sext i32 %39 to i64
  %41 = getelementptr inbounds i32, i32* %36, i64 %40
  store i32 %35, i32* %41, align 4
  br label %42

42:                                               ; preds = %30
  %43 = load i32, i32* %7, align 4
  %44 = add nsw i32 %43, 1
  store i32 %44, i32* %7, align 4
  br label %26

45:                                               ; preds = %26
  ret void
}

; Function Attrs: noinline nounwind uwtable
define dso_local void @output(i32* %0) #0 {
  %2 = alloca i32*, align 8
  %3 = alloca i32, align 4
  store i32* %0, i32** %2, align 8
  store i32 0, i32* %3, align 4
  br label %4

4:                                                ; preds = %25, %1
  %5 = load i32, i32* %3, align 4
  %6 = load i32, i32* @m, align 4
  %7 = load i32, i32* @n, align 4
  %8 = add nsw i32 %6, %7
  %9 = icmp slt i32 %5, %8
  br i1 %9, label %10, label %28

10:                                               ; preds = %4
  %11 = load i32*, i32** %2, align 8
  %12 = load i32, i32* %3, align 4
  %13 = sext i32 %12 to i64
  %14 = getelementptr inbounds i32, i32* %11, i64 %13
  %15 = load i32, i32* %14, align 4
  %16 = load i32, i32* %3, align 4
  %17 = load i32, i32* @m, align 4
  %18 = load i32, i32* @n, align 4
  %19 = add nsw i32 %17, %18
  %20 = sub nsw i32 %19, 1
  %21 = icmp slt i32 %16, %20
  %22 = zext i1 %21 to i64
  %23 = select i1 %21, i8* getelementptr inbounds ([2 x i8], [2 x i8]* @.str.3, i64 0, i64 0), i8* getelementptr inbounds ([2 x i8], [2 x i8]* @.str.4, i64 0, i64 0)
  %24 = call i32 (i8*, ...) @printf(i8* getelementptr inbounds ([5 x i8], [5 x i8]* @.str.2, i64 0, i64 0), i32 %15, i8* %23)
  br label %25

25:                                               ; preds = %10
  %26 = load i32, i32* %3, align 4
  %27 = add nsw i32 %26, 1
  store i32 %27, i32* %3, align 4
  br label %4

28:                                               ; preds = %4
  ret void
}

; Function Attrs: noinline nounwind uwtable
define dso_local i32 @main() #0 {
  %1 = alloca i32, align 4
  %2 = alloca [10000 x i32], align 16
  %3 = alloca [10000 x i32], align 16
  %4 = alloca [10000 x i32], align 16
  store i32 0, i32* %1, align 4
  %5 = bitcast [10000 x i32]* %2 to i8*
  call void @llvm.memset.p0i8.i64(i8* align 16 %5, i8 0, i64 40000, i1 false)
  %6 = bitcast [10000 x i32]* %3 to i8*
  call void @llvm.memset.p0i8.i64(i8* align 16 %6, i8 0, i64 40000, i1 false)
  %7 = bitcast [10000 x i32]* %4 to i8*
  call void @llvm.memset.p0i8.i64(i8* align 16 %7, i8 0, i64 40000, i1 false)
  %8 = getelementptr inbounds [10000 x i32], [10000 x i32]* %2, i64 0, i64 0
  %9 = getelementptr inbounds [10000 x i32], [10000 x i32]* %3, i64 0, i64 0
  call void @input(i32* %8, i32* %9)
  %10 = getelementptr inbounds [10000 x i32], [10000 x i32]* %2, i64 0, i64 0
  %11 = getelementptr inbounds [10000 x i32], [10000 x i32]* %3, i64 0, i64 0
  call void @sort(i32* %10, i32* %11)
  %12 = getelementptr inbounds [10000 x i32], [10000 x i32]* %2, i64 0, i64 0
  %13 = getelementptr inbounds [10000 x i32], [10000 x i32]* %3, i64 0, i64 0
  %14 = getelementptr inbounds [10000 x i32], [10000 x i32]* %4, i64 0, i64 0
  call void @merge(i32* %12, i32* %13, i32* %14)
  %15 = getelementptr inbounds [10000 x i32], [10000 x i32]* %4, i64 0, i64 0
  call void @output(i32* %15)
  ret i32 0
}